target datalayout = "e-m:e-p270:32:32-p271:32:32-p272:64:64-i64:64-i128:128-f80:128-n8:16:32:64-S128"
target triple = "x86_64-pc-linux-gnu"

%"class.std::ios_base::failure" = type { %"class.std::system_error" }
%"class.std::system_error" = type { %"class.std::runtime_error", %"class.std::error_code" }
%"class.std::runtime_error" = type { %"class.std::exception", %"struct.std::__cow_string" }
%"class.std::exception" = type { ptr }
%"struct.std::__cow_string" = type { %union.anon }
%union.anon = type { ptr }
%"class.std::error_code" = type { i32, ptr }
%"class.boost::iostreams::file_descriptor" = type { %"class.boost::shared_ptr" }
%"class.boost::shared_ptr" = type { ptr, %"class.boost::detail::shared_count" }
%"class.boost::detail::shared_count" = type { ptr }

@.str.7 = private unnamed_addr constant [13 x i8] c"invalid mode\00", align 1

; Function Attrs: inlinehint mustprogress nounwind uwtable
define linkonce_odr noundef i32 @_ZStorSt13_Ios_OpenmodeS_(i32 noundef %0, i32 noundef %1) #4 comdat {
  %3 = alloca i32, align 4
  %4 = alloca i32, align 4
  store i32 %0, ptr %3, align 4, !tbaa !18
  store i32 %1, ptr %4, align 4, !tbaa !18
  %5 = load i32, ptr %3, align 4, !tbaa !18
  %6 = load i32, ptr %4, align 4, !tbaa !18
  %7 = or i32 %5, %6
  ret i32 %7
}

; Function Attrs: mustprogress nounwind uwtable
define linkonce_odr hidden void @_ZNSt10error_codeC2EiRKNSt3_V214error_categoryE(ptr noundef nonnull align 8 dereferenceable(16) %0, i32 noundef %1, ptr noundef nonnull align 8 dereferenceable(8) %2) unnamed_addr #1 comdat align 2 {
  %4 = alloca ptr, align 8
  %5 = alloca i32, align 4
  %6 = alloca ptr, align 8
  store ptr %0, ptr %4, align 8, !tbaa !3
  store i32 %1, ptr %5, align 4, !tbaa !15
  store ptr %2, ptr %6, align 8, !tbaa !3
  %7 = load ptr, ptr %4, align 8
  %8 = getelementptr inbounds nuw %"class.std::error_code", ptr %7, i32 0, i32 0
  %9 = load i32, ptr %5, align 4, !tbaa !15
  store i32 %9, ptr %8, align 8, !tbaa !57
  %10 = getelementptr inbounds nuw %"class.std::error_code", ptr %7, i32 0, i32 1
  %11 = load ptr, ptr %6, align 8, !tbaa !3
  store ptr %11, ptr %10, align 8, !tbaa !59
  ret void
}

; Function Attrs: mustprogress nounwind uwtable
define linkonce_odr hidden noundef ptr @_ZNK5boost10shared_ptrINS_9iostreams6detail20file_descriptor_implEEptEv(ptr noundef nonnull align 8 dereferenceable(16) %0) #1 comdat align 2 {
  %2 = alloca ptr, align 8
  store ptr %0, ptr %2, align 8, !tbaa !3
  %3 = load ptr, ptr %2, align 8
  %4 = getelementptr inbounds nuw %"class.boost::shared_ptr", ptr %3, i32 0, i32 0
  %5 = load ptr, ptr %4, align 8, !tbaa !27
  ret ptr %5
}

; Function Attrs: inlinehint mustprogress nounwind uwtable
define linkonce_odr noundef nonnull align 4 dereferenceable(4) ptr @_ZStoRRSt13_Ios_OpenmodeS_(ptr noundef nonnull align 4 dereferenceable(4) %0, i32 noundef %1) #4 comdat {
  %3 = alloca ptr, align 8
  %4 = alloca i32, align 4
  store ptr %0, ptr %3, align 8, !tbaa !3
  store i32 %1, ptr %4, align 4, !tbaa !18
  %5 = load ptr, ptr %3, align 8, !tbaa !3
  %6 = load i32, ptr %5, align 4, !tbaa !18
  %7 = load i32, ptr %4, align 4, !tbaa !18
  %8 = call noundef i32 @_ZStorSt13_Ios_OpenmodeS_(i32 noundef %6, i32 noundef %7)
  %9 = load ptr, ptr %3, align 8, !tbaa !3
  store i32 %8, ptr %9, align 4, !tbaa !18
  ret ptr %9
}

; Function Attrs: inlinehint mustprogress nounwind uwtable
define linkonce_odr { i32, ptr } @_ZSt15make_error_codeSt7io_errc(i32 noundef %0) #4 comdat {
  %2 = alloca %"class.std::error_code", align 8
  %3 = alloca i32, align 4
  store i32 %0, ptr %3, align 4, !tbaa !20
  %4 = load i32, ptr %3, align 4, !tbaa !20
  %5 = call noundef nonnull align 8 dereferenceable(8) ptr @_ZSt17iostream_categoryv() #22
  call void @_ZNSt10error_codeC2EiRKNSt3_V214error_categoryE(ptr noundef nonnull align 8 dereferenceable(16) %2, i32 noundef %4, ptr noundef nonnull align 8 dereferenceable(8) %5) #20
  %6 = load { i32, ptr }, ptr %2, align 8
  ret { i32, ptr } %6
}

; Function Attrs: mustprogress uwtable
define void @_ZN5boost9iostreams15file_descriptor4openERKNS0_6detail4pathESt13_Ios_OpenmodeS6_(ptr noundef nonnull align 8 dereferenceable(16) %0, ptr noundef nonnull align 8 dereferenceable(65) %1, i32 noundef %2, i32 noundef %3) #0 align 2 {
  %5 = alloca ptr, align 8
  %6 = alloca ptr, align 8
  %7 = alloca i32, align 4
  %8 = alloca i32, align 4
  store ptr %0, ptr %5, align 8, !tbaa !3
  store ptr %1, ptr %6, align 8, !tbaa !3
  store i32 %2, ptr %7, align 4, !tbaa !18
  store i32 %3, ptr %8, align 4, !tbaa !18
  %9 = load ptr, ptr %5, align 8
  %10 = load i32, ptr %8, align 4, !tbaa !18
  %11 = call noundef nonnull align 4 dereferenceable(4) ptr @_ZStoRRSt13_Ios_OpenmodeS_(ptr noundef nonnull align 4 dereferenceable(4) %7, i32 noundef %10)
  %12 = getelementptr inbounds nuw %"class.boost::iostreams::file_descriptor", ptr %9, i32 0, i32 0
  %13 = call noundef ptr @_ZNK5boost10shared_ptrINS_9iostreams6detail20file_descriptor_implEEptEv(ptr noundef nonnull align 8 dereferenceable(16) %12) #20
  %14 = load ptr, ptr %6, align 8, !tbaa !3
  %15 = load i32, ptr %7, align 4, !tbaa !18
  call void @_ZN5boost9iostreams6detail20file_descriptor_impl4openERKNS1_4pathESt13_Ios_Openmode(ptr noundef nonnull align 4 dereferenceable(8) %13, ptr noundef nonnull align 8 dereferenceable(65) %14, i32 noundef %15)
  ret void
}

; Function Attrs: mustprogress nounwind uwtable
define linkonce_odr hidden void @_ZNSt10error_codeC2ISt7io_errcvEET_(ptr noundef nonnull align 8 dereferenceable(16) %0, i32 noundef %1) unnamed_addr #1 comdat align 2 {
  %3 = alloca ptr, align 8
  %4 = alloca i32, align 4
  %5 = alloca %"class.std::error_code", align 8
  store ptr %0, ptr %3, align 8, !tbaa !3
  store i32 %1, ptr %4, align 4, !tbaa !20
  %6 = load ptr, ptr %3, align 8
  call void @llvm.lifetime.start.p0(i64 16, ptr %5) #20
  %7 = load i32, ptr %4, align 4, !tbaa !20
  %8 = call { i32, ptr } @_ZSt15make_error_codeSt7io_errc(i32 noundef %7) #20
  %9 = getelementptr inbounds nuw { i32, ptr }, ptr %5, i32 0, i32 0
  %10 = extractvalue { i32, ptr } %8, 0
  store i32 %10, ptr %9, align 8
  %11 = getelementptr inbounds nuw { i32, ptr }, ptr %5, i32 0, i32 1
  %12 = extractvalue { i32, ptr } %8, 1
  store ptr %12, ptr %11, align 8
  call void @llvm.memcpy.p0.p0.i64(ptr align 8 %6, ptr align 8 %5, i64 16, i1 false), !tbaa.struct !22
  call void @llvm.lifetime.end.p0(i64 16, ptr %5) #20
  ret void
}

; Function Attrs: inlinehint mustprogress nounwind uwtable
define linkonce_odr noundef i32 @_ZStanSt13_Ios_OpenmodeS_(i32 noundef %0, i32 noundef %1) #4 comdat {
  %3 = alloca i32, align 4
  %4 = alloca i32, align 4
  store i32 %0, ptr %3, align 4, !tbaa !18
  store i32 %1, ptr %4, align 4, !tbaa !18
  %5 = load i32, ptr %3, align 4, !tbaa !18
  %6 = load i32, ptr %4, align 4, !tbaa !18
  %7 = and i32 %5, %6
  ret i32 %7
}

; Function Attrs: mustprogress uwtable
define void @_ZN5boost9iostreams20file_descriptor_sink4openERKNS0_6detail4pathESt13_Ios_Openmode(ptr noundef nonnull align 8 dereferenceable(16) %0, ptr noundef nonnull align 8 dereferenceable(65) %1, i32 noundef %2) #0 align 2 personality ptr @__gxx_personality_v0 {
  %4 = alloca ptr, align 8
  %5 = alloca ptr, align 8
  %6 = alloca i32, align 4
  %7 = alloca %"class.std::ios_base::failure", align 8
  %8 = alloca %"class.std::error_code", align 8
  %9 = alloca ptr, align 8
  %10 = alloca i32, align 4
  store ptr %0, ptr %4, align 8, !tbaa !3
  store ptr %1, ptr %5, align 8, !tbaa !3
  store i32 %2, ptr %6, align 4, !tbaa !18
  %11 = load ptr, ptr %4, align 8
  %12 = load i32, ptr %6, align 4, !tbaa !18
  %13 = call noundef i32 @_ZStanSt13_Ios_OpenmodeS_(i32 noundef %12, i32 noundef 8)
  %14 = icmp ne i32 %13, 0
  br i1 %14, label %15, label %21

15:                                               ; preds = %3
  call void @llvm.lifetime.start.p0(i64 32, ptr %7) #20
  call void @llvm.lifetime.start.p0(i64 16, ptr %8) #20
  call void @_ZNSt10error_codeC2ISt7io_errcvEET_(ptr noundef nonnull align 8 dereferenceable(16) %8, i32 noundef 1) #20
  call void @_ZNSt8ios_base7failureB5cxx11C1EPKcRKSt10error_code(ptr noundef nonnull align 8 dereferenceable(32) %7, ptr noundef @.str.7, ptr noundef nonnull align 8 dereferenceable(16) %8)
  invoke void @_ZN5boost15throw_exceptionINSt8ios_base7failureB5cxx11EEEvRKT_(ptr noundef nonnull align 8 dereferenceable(32) %7) #21
          to label %16 unwind label %17

16:                                               ; preds = %15
  unreachable

17:                                               ; preds = %15
  %18 = landingpad { ptr, i32 }
          cleanup
  %19 = extractvalue { ptr, i32 } %18, 0
  store ptr %19, ptr %9, align 8
  %20 = extractvalue { ptr, i32 } %18, 1
  store i32 %20, ptr %10, align 4
  call void @_ZNSt8ios_base7failureB5cxx11D1Ev(ptr noundef nonnull align 8 dereferenceable(32) %7) #20
  call void @llvm.lifetime.end.p0(i64 16, ptr %8) #20
  call void @llvm.lifetime.end.p0(i64 32, ptr %7) #20
  br label %24

21:                                               ; preds = %3
  %22 = load ptr, ptr %5, align 8, !tbaa !3
  %23 = load i32, ptr %6, align 4, !tbaa !18
  call void @_ZN5boost9iostreams15file_descriptor4openERKNS0_6detail4pathESt13_Ios_OpenmodeS6_(ptr noundef nonnull align 8 dereferenceable(16) %11, ptr noundef nonnull align 8 dereferenceable(65) %22, i32 noundef %23, i32 noundef 16)
  ret void

24:                                               ; preds = %17
  %25 = load ptr, ptr %9, align 8
  %26 = load i32, ptr %10, align 4
  %27 = insertvalue { ptr, i32 } poison, ptr %25, 0
  %28 = insertvalue { ptr, i32 } %27, i32 %26, 1
  resume { ptr, i32 } %28
}