; Function Attrs: mustprogress uwtable
define void @_ZN5boost9iostreams20file_descriptor_sink4openERKNS0_6detail4pathESt13_Ios_Openmode(ptr nocapture noundef nonnull readonly align 8 dereferenceable(16) %0, ptr nocapture noundef nonnull readonly align 8 dereferenceable(65) %1, i32 noundef %2) local_unnamed_addr #3 align 2 personality ptr @__gxx_personality_v0 {
  %4 = alloca %"class.std::ios_base::failure", align 8
  %5 = alloca %"class.std::error_code", align 8
  %6 = and i32 %2, 8
  %.not = icmp eq i32 %6, 0
  br i1 %.not, label %12, label %7

7:                                                ; preds = %3
  call void @llvm.lifetime.start.p0(i64 32, ptr nonnull %4) #28
  call void @llvm.lifetime.start.p0(i64 16, ptr nonnull %5) #28
  %8 = tail call noundef nonnull align 8 dereferenceable(8) ptr @_ZSt17iostream_categoryv() #30
  store i32 1, ptr %5, align 8, !tbaa !9
  %.sroa.41.0..sroa_idx.i = getelementptr inbounds i8, ptr %5, i64 8
  store ptr %8, ptr %.sroa.41.0..sroa_idx.i, align 8, !tbaa !10
  call void @_ZNSt8ios_base7failureB5cxx11C1EPKcRKSt10error_code(ptr noundef nonnull align 8 dereferenceable(32) %4, ptr noundef nonnull @.str.7, ptr noundef nonnull align 8 dereferenceable(16) %5)
  invoke void @_ZN5boost15throw_exceptionINSt8ios_base7failureB5cxx11EEEvRKT_(ptr noundef nonnull align 8 dereferenceable(32) %4) #29
          to label %9 unwind label %10

9:                                                ; preds = %7
  unreachable

10:                                               ; preds = %7
  %11 = landingpad { ptr, i32 }
          cleanup
  call void @_ZNSt8ios_base7failureB5cxx11D1Ev(ptr noundef nonnull align 8 dereferenceable(32) %4) #28
  call void @llvm.lifetime.end.p0(i64 16, ptr nonnull %5) #28
  call void @llvm.lifetime.end.p0(i64 32, ptr nonnull %4) #28
  resume { ptr, i32 } %11

12:                                               ; preds = %3
  %13 = or i32 %2, 16
  %14 = load ptr, ptr %0, align 8, !tbaa !19
  tail call void @_ZN5boost9iostreams6detail20file_descriptor_impl4openERKNS1_4pathESt13_Ios_Openmode(ptr noundef nonnull align 4 dereferenceable(8) %14, ptr noundef nonnull readonly align 8 dereferenceable(65) %1, i32 noundef %13)
  ret void
}